target datalayout = "e-m:e-p270:32:32-p271:32:32-p272:64:64-i64:64-i128:128-f80:128-n8:16:32:64-S128"
target triple = "x86_64-pc-linux-gnu"

%struct._cms_MLU_struct = type { ptr, i32, i32, ptr, i32, i32, ptr }
%struct._cmsMLUentry = type { i16, i16, i32, i32 }

; Function Attrs: nounwind uwtable
define internal void @strFrom16(ptr noundef %0, i16 noundef zeroext %1) #0 {
  %3 = alloca ptr, align 8
  %4 = alloca i16, align 2
  store ptr %0, ptr %3, align 8
  store i16 %1, ptr %4, align 2
  %5 = load i16, ptr %4, align 2
  %6 = zext i16 %5 to i32
  %7 = ashr i32 %6, 8
  %8 = trunc i32 %7 to i8
  %9 = load ptr, ptr %3, align 8
  %10 = getelementptr inbounds i8, ptr %9, i64 0
  store i8 %8, ptr %10, align 1
  %11 = load i16, ptr %4, align 2
  %12 = trunc i16 %11 to i8
  %13 = load ptr, ptr %3, align 8
  %14 = getelementptr inbounds i8, ptr %13, i64 1
  store i8 %12, ptr %14, align 1
  %15 = load ptr, ptr %3, align 8
  %16 = getelementptr inbounds i8, ptr %15, i64 2
  store i8 0, ptr %16, align 1
  ret void
}

; Function Attrs: nounwind uwtable
define hidden i32 @cmsMLUtranslationsCodes(ptr noundef %0, i32 noundef %1, ptr noundef %2, ptr noundef %3) #0 {
  %5 = alloca i32, align 4
  %6 = alloca ptr, align 8
  %7 = alloca i32, align 4
  %8 = alloca ptr, align 8
  %9 = alloca ptr, align 8
  %10 = alloca ptr, align 8
  store ptr %0, ptr %6, align 8
  store i32 %1, ptr %7, align 4
  store ptr %2, ptr %8, align 8
  store ptr %3, ptr %9, align 8
  %11 = load ptr, ptr %6, align 8
  %12 = icmp eq ptr %11, null
  br i1 %12, label %13, label %14

13:                                               ; preds = %4
  store i32 0, ptr %5, align 4
  br label %36

14:                                               ; preds = %4
  %15 = load i32, ptr %7, align 4
  %16 = load ptr, ptr %6, align 8
  %17 = getelementptr inbounds %struct._cms_MLU_struct, ptr %16, i32 0, i32 2
  %18 = load i32, ptr %17, align 4
  %19 = icmp uge i32 %15, %18
  br i1 %19, label %20, label %21

20:                                               ; preds = %14
  store i32 0, ptr %5, align 4
  br label %36

21:                                               ; preds = %14
  %22 = load ptr, ptr %6, align 8
  %23 = getelementptr inbounds %struct._cms_MLU_struct, ptr %22, i32 0, i32 3
  %24 = load ptr, ptr %23, align 8
  %25 = load i32, ptr %7, align 4
  %26 = zext i32 %25 to i64
  %27 = getelementptr inbounds %struct._cmsMLUentry, ptr %24, i64 %26
  store ptr %27, ptr %10, align 8
  %28 = load ptr, ptr %8, align 8
  %29 = load ptr, ptr %10, align 8
  %30 = getelementptr inbounds %struct._cmsMLUentry, ptr %29, i32 0, i32 0
  %31 = load i16, ptr %30, align 4
  call void @strFrom16(ptr noundef %28, i16 noundef zeroext %31)
  %32 = load ptr, ptr %9, align 8
  %33 = load ptr, ptr %10, align 8
  %34 = getelementptr inbounds %struct._cmsMLUentry, ptr %33, i32 0, i32 1
  %35 = load i16, ptr %34, align 2
  call void @strFrom16(ptr noundef %32, i16 noundef zeroext %35)
  store i32 1, ptr %5, align 4
  br label %36

36:                                               ; preds = %21, %20, %13
  %37 = load i32, ptr %5, align 4
  ret i32 %37
}