; Function Attrs: mustprogress nofree norecurse nosync nounwind willreturn memory(read, argmem: readwrite, inaccessiblemem: none) uwtable
define hidden range(i32 0, 2) i32 @cmsMLUtranslationsCodes(ptr noundef readonly %0, i32 noundef %1, ptr nocapture noundef writeonly %2, ptr nocapture noundef writeonly %3) local_unnamed_addr #7 {
  %5 = icmp eq ptr %0, null
  br i1 %5, label %27, label %6

6:                                                ; preds = %4
  %7 = getelementptr inbounds i8, ptr %0, i64 12
  %8 = load i32, ptr %7, align 4
  %.not = icmp ugt i32 %8, %1
  br i1 %.not, label %9, label %27

9:                                                ; preds = %6
  %10 = getelementptr inbounds i8, ptr %0, i64 16
  %11 = load ptr, ptr %10, align 8
  %12 = zext i32 %1 to i64
  %13 = getelementptr inbounds %struct._cmsMLUentry, ptr %11, i64 %12
  %14 = load i16, ptr %13, align 4
  %15 = lshr i16 %14, 8
  %16 = trunc nuw i16 %15 to i8
  store i8 %16, ptr %2, align 1
  %17 = trunc i16 %14 to i8
  %18 = getelementptr inbounds i8, ptr %2, i64 1
  store i8 %17, ptr %18, align 1
  %19 = getelementptr inbounds i8, ptr %2, i64 2
  store i8 0, ptr %19, align 1
  %20 = getelementptr inbounds i8, ptr %13, i64 2
  %21 = load i16, ptr %20, align 2
  %22 = lshr i16 %21, 8
  %23 = trunc nuw i16 %22 to i8
  store i8 %23, ptr %3, align 1
  %24 = trunc i16 %21 to i8
  %25 = getelementptr inbounds i8, ptr %3, i64 1
  store i8 %24, ptr %25, align 1
  %26 = getelementptr inbounds i8, ptr %3, i64 2
  store i8 0, ptr %26, align 1
  br label %27

27:                                               ; preds = %6, %4, %9
  %.0 = phi i32 [ 1, %9 ], [ 0, %4 ], [ 0, %6 ]
  ret i32 %.0
}